target datalayout = "e-m:e-p270:32:32-p271:32:32-p272:64:64-i64:64-i128:128-f80:128-n8:16:32:64-S128"
target triple = "x86_64-pc-linux-gnu"

%struct.wtap_dumper = type { ptr, i32, i32, i32, i32, i8, i64, ptr, ptr, ptr, ptr, ptr, ptr, ptr, ptr, ptr, ptr, ptr, ptr, ptr, i32, i32, i32 }
%struct._5views_dump_t = type { i32 }

; Function Attrs: null_pointer_is_valid sspstrong uwtable
define internal zeroext i1 @_5views_dump_open(ptr noundef %0, ptr noundef %1, ptr noundef %2) #0 {
  %4 = alloca i1, align 1
  %5 = alloca ptr, align 8
  %6 = alloca ptr, align 8
  %7 = alloca ptr, align 8
  %8 = alloca ptr, align 8
  %9 = alloca i32, align 4
  %10 = alloca i64, align 8
  %11 = alloca i64, align 8
  %12 = alloca ptr, align 8
  %13 = alloca ptr, align 8
  store ptr %0, ptr %5, align 8
  store ptr %1, ptr %6, align 8
  store ptr %2, ptr %7, align 8
  call void @llvm.lifetime.start.p0(i64 8, ptr %8) #9
  %14 = load ptr, ptr %5, align 8
  %15 = load ptr, ptr %6, align 8
  %16 = call i64 @wtap_dump_file_seek(ptr noundef %14, i64 noundef 56, i32 noundef 0, ptr noundef %15)
  %17 = icmp eq i64 %16, -1
  br i1 %17, label %18, label %19

18:                                               ; preds = %3
  store i1 false, ptr %4, align 1
  store i32 1, ptr %9, align 4
  br label %58

19:                                               ; preds = %3
  %20 = load ptr, ptr %5, align 8
  %21 = getelementptr inbounds nuw %struct.wtap_dumper, ptr %20, i32 0, i32 10
  store ptr @_5views_dump, ptr %21, align 8
  %22 = load ptr, ptr %5, align 8
  %23 = getelementptr inbounds nuw %struct.wtap_dumper, ptr %22, i32 0, i32 11
  store ptr @_5views_dump_finish, ptr %23, align 8
  call void @llvm.lifetime.start.p0(i64 8, ptr %10) #9
  store i64 1, ptr %10, align 8
  call void @llvm.lifetime.start.p0(i64 8, ptr %11) #9
  store i64 4, ptr %11, align 8
  call void @llvm.lifetime.start.p0(i64 8, ptr %12) #9
  %24 = load i64, ptr %11, align 8
  %25 = icmp eq i64 %24, 1
  br i1 %25, label %26, label %29

26:                                               ; preds = %19
  %27 = load i64, ptr %10, align 8
  %28 = call noalias ptr @g_malloc(i64 noundef %27) #10
  store ptr %28, ptr %12, align 8
  br label %50

29:                                               ; preds = %19
  %30 = load i64, ptr %10, align 8
  %31 = call i1 @llvm.is.constant.i64(i64 %30)
  br i1 %31, label %32, label %45

32:                                               ; preds = %29
  %33 = load i64, ptr %11, align 8
  %34 = icmp eq i64 %33, 0
  br i1 %34, label %40, label %35

35:                                               ; preds = %32
  %36 = load i64, ptr %10, align 8
  %37 = load i64, ptr %11, align 8
  %38 = udiv i64 -1, %37
  %39 = icmp ule i64 %36, %38
  br i1 %39, label %40, label %45

40:                                               ; preds = %35, %32
  %41 = load i64, ptr %10, align 8
  %42 = load i64, ptr %11, align 8
  %43 = mul i64 %41, %42
  %44 = call noalias ptr @g_malloc(i64 noundef %43) #10
  store ptr %44, ptr %12, align 8
  br label %49

45:                                               ; preds = %35, %29
  %46 = load i64, ptr %10, align 8
  %47 = load i64, ptr %11, align 8
  %48 = call noalias ptr @g_malloc_n(i64 noundef %46, i64 noundef %47) #11
  store ptr %48, ptr %12, align 8
  br label %49

49:                                               ; preds = %45, %40
  br label %50

50:                                               ; preds = %49, %26
  %51 = load ptr, ptr %12, align 8
  store ptr %51, ptr %13, align 8
  call void @llvm.lifetime.end.p0(i64 8, ptr %12) #9
  call void @llvm.lifetime.end.p0(i64 8, ptr %11) #9
  call void @llvm.lifetime.end.p0(i64 8, ptr %10) #9
  %52 = load ptr, ptr %13, align 8
  store ptr %52, ptr %8, align 8
  %53 = load ptr, ptr %8, align 8
  %54 = load ptr, ptr %5, align 8
  %55 = getelementptr inbounds nuw %struct.wtap_dumper, ptr %54, i32 0, i32 7
  store ptr %53, ptr %55, align 8
  %56 = load ptr, ptr %8, align 8
  %57 = getelementptr inbounds nuw %struct._5views_dump_t, ptr %56, i32 0, i32 0
  store i32 0, ptr %57, align 4
  store i1 true, ptr %4, align 1
  store i32 1, ptr %9, align 4
  br label %58

58:                                               ; preds = %50, %18
  call void @llvm.lifetime.end.p0(i64 8, ptr %8) #9
  %59 = load i1, ptr %4, align 1
  ret i1 %59
}