; Function Attrs: null_pointer_is_valid sspstrong uwtable
define internal noundef zeroext i1 @_5views_dump_open(ptr noundef %0, ptr noundef %1, ptr readnone captures(none) %2) #0 {
  %4 = tail call i64 @wtap_dump_file_seek(ptr noundef %0, i64 noundef 56, i32 noundef 0, ptr noundef %1)
  %5 = icmp ne i64 %4, -1
  br i1 %5, label %6, label %11

6:                                                ; preds = %3
  %7 = getelementptr inbounds nuw i8, ptr %0, i64 64
  store ptr @_5views_dump, ptr %7, align 8
  %8 = getelementptr inbounds nuw i8, ptr %0, i64 72
  store ptr @_5views_dump_finish, ptr %8, align 8
  %9 = tail call noalias dereferenceable_or_null(4) ptr @g_malloc(i64 noundef 4) #7
  %10 = getelementptr inbounds nuw i8, ptr %0, i64 40
  store ptr %9, ptr %10, align 8
  store i32 0, ptr %9, align 4
  br label %11

11:                                               ; preds = %3, %6
  ret i1 %5
}